; Function Attrs: mustprogress nofree norecurse nosync nounwind willreturn memory(read, inaccessiblemem: none) uwtable
define hidden { ptr, ptr } @_ZNK6google8protobuf14DynamicMessage11GetMetadataEv(ptr nocapture noundef nonnull readonly align 8 dereferenceable(32) %this) unnamed_addr #6 align 2 {
entry:
  %type_info_ = getelementptr inbounds i8, ptr %this, i64 16
  %0 = load ptr, ptr %type_info_, align 8
  %type = getelementptr inbounds i8, ptr %0, i64 32
  %1 = load ptr, ptr %type, align 8
  %reflection = getelementptr inbounds i8, ptr %0, i64 56
  %2 = load ptr, ptr %reflection, align 8
  %.fca.0.insert = insertvalue { ptr, ptr } poison, ptr %1, 0
  %.fca.1.insert = insertvalue { ptr, ptr } %.fca.0.insert, ptr %2, 1
  ret { ptr, ptr } %.fca.1.insert
}